target datalayout = "e-m:e-p270:32:32-p271:32:32-p272:64:64-i64:64-i128:128-f80:128-n8:16:32:64-S128"
target triple = "x86_64-pc-linux-gnu"

; Function Attrs: nounwind uwtable
define internal i64 @oid_subidentifier_num_bytes(i32 noundef %0) #0 {
  %2 = alloca i32, align 4
  %3 = alloca i64, align 8
  store i32 %0, ptr %2, align 4, !tbaa !32
  call void @llvm.lifetime.start.p0(i64 8, ptr %3) #6
  store i64 0, ptr %3, align 8, !tbaa !46
  br label %4

4:                                                ; preds = %9, %1
  %5 = load i32, ptr %2, align 4, !tbaa !32
  %6 = lshr i32 %5, 7
  store i32 %6, ptr %2, align 4, !tbaa !32
  %7 = load i64, ptr %3, align 8, !tbaa !46
  %8 = add i64 %7, 1
  store i64 %8, ptr %3, align 8, !tbaa !46
  br label %9

9:                                                ; preds = %4
  %10 = load i32, ptr %2, align 4, !tbaa !32
  %11 = icmp ne i32 %10, 0
  br i1 %11, label %4, label %12, !llvm.loop !68

12:                                               ; preds = %9
  %13 = load i64, ptr %3, align 8, !tbaa !46
  call void @llvm.lifetime.end.p0(i64 8, ptr %3) #6
  ret i64 %13
}

; Function Attrs: nounwind uwtable
define internal i32 @oid_subidentifier_encode_into(ptr noundef %0, ptr noundef %1, i32 noundef %2) #0 {
  %4 = alloca i32, align 4
  %5 = alloca ptr, align 8
  %6 = alloca ptr, align 8
  %7 = alloca i32, align 4
  %8 = alloca i64, align 8
  %9 = alloca i32, align 4
  %10 = alloca i64, align 8
  store ptr %0, ptr %5, align 8, !tbaa !8
  store ptr %1, ptr %6, align 8, !tbaa !17
  store i32 %2, ptr %7, align 4, !tbaa !32
  call void @llvm.lifetime.start.p0(i64 8, ptr %8) #6
  %11 = load i32, ptr %7, align 4, !tbaa !32
  %12 = call i64 @oid_subidentifier_num_bytes(i32 noundef %11)
  store i64 %12, ptr %8, align 8, !tbaa !46
  %13 = load ptr, ptr %6, align 8, !tbaa !17
  %14 = load ptr, ptr %5, align 8, !tbaa !8
  %15 = load ptr, ptr %14, align 8, !tbaa !17
  %16 = ptrtoint ptr %13 to i64
  %17 = ptrtoint ptr %15 to i64
  %18 = sub i64 %16, %17
  %19 = load i64, ptr %8, align 8, !tbaa !46
  %20 = icmp ult i64 %18, %19
  br i1 %20, label %21, label %22

21:                                               ; preds = %3
  store i32 -11, ptr %4, align 4
  store i32 1, ptr %9, align 4
  br label %61

22:                                               ; preds = %3
  %23 = load i32, ptr %7, align 4, !tbaa !32
  %24 = and i32 %23, 127
  %25 = trunc i32 %24 to i8
  %26 = load ptr, ptr %5, align 8, !tbaa !8
  %27 = load ptr, ptr %26, align 8, !tbaa !17
  %28 = load i64, ptr %8, align 8, !tbaa !46
  %29 = sub i64 %28, 1
  %30 = getelementptr inbounds nuw i8, ptr %27, i64 %29
  store i8 %25, ptr %30, align 1, !tbaa !61
  %31 = load i32, ptr %7, align 4, !tbaa !32
  %32 = lshr i32 %31, 7
  store i32 %32, ptr %7, align 4, !tbaa !32
  call void @llvm.lifetime.start.p0(i64 8, ptr %10) #6
  store i64 2, ptr %10, align 8, !tbaa !46
  br label %33

33:                                               ; preds = %53, %22
  %34 = load i64, ptr %10, align 8, !tbaa !46
  %35 = load i64, ptr %8, align 8, !tbaa !46
  %36 = icmp ule i64 %34, %35
  br i1 %36, label %38, label %37

37:                                               ; preds = %33
  store i32 2, ptr %9, align 4
  call void @llvm.lifetime.end.p0(i64 8, ptr %10) #6
  br label %56

38:                                               ; preds = %33
  %39 = load i32, ptr %7, align 4, !tbaa !32
  %40 = and i32 %39, 127
  %41 = trunc i32 %40 to i8
  %42 = zext i8 %41 to i32
  %43 = or i32 128, %42
  %44 = trunc i32 %43 to i8
  %45 = load ptr, ptr %5, align 8, !tbaa !8
  %46 = load ptr, ptr %45, align 8, !tbaa !17
  %47 = load i64, ptr %8, align 8, !tbaa !46
  %48 = load i64, ptr %10, align 8, !tbaa !46
  %49 = sub i64 %47, %48
  %50 = getelementptr inbounds nuw i8, ptr %46, i64 %49
  store i8 %44, ptr %50, align 1, !tbaa !61
  %51 = load i32, ptr %7, align 4, !tbaa !32
  %52 = lshr i32 %51, 7
  store i32 %52, ptr %7, align 4, !tbaa !32
  br label %53

53:                                               ; preds = %38
  %54 = load i64, ptr %10, align 8, !tbaa !46
  %55 = add i64 %54, 1
  store i64 %55, ptr %10, align 8, !tbaa !46
  br label %33, !llvm.loop !67

56:                                               ; preds = %37
  %57 = load i64, ptr %8, align 8, !tbaa !46
  %58 = load ptr, ptr %5, align 8, !tbaa !8
  %59 = load ptr, ptr %58, align 8, !tbaa !17
  %60 = getelementptr inbounds nuw i8, ptr %59, i64 %57
  store ptr %60, ptr %58, align 8, !tbaa !17
  store i32 0, ptr %4, align 4
  store i32 1, ptr %9, align 4
  br label %61

61:                                               ; preds = %56, %21
  call void @llvm.lifetime.end.p0(i64 8, ptr %8) #6
  %62 = load i32, ptr %4, align 4
  ret i32 %62
}