; Function Attrs: nofree norecurse nosync nounwind memory(write, argmem: readwrite, inaccessiblemem: none) uwtable
define internal fastcc range(i32 -11, 1) i32 @oid_subidentifier_encode_into(ptr noundef nonnull captures(none) %0, ptr noundef %1, i32 noundef %2) unnamed_addr #8 {
  br label %4

4:                                                ; preds = %4, %3
  %indvars.iv = phi i64 [ %indvars.iv.next, %4 ], [ 2, %3 ]
  %.04.i = phi i32 [ %5, %4 ], [ %2, %3 ]
  %.0.i = phi i64 [ %6, %4 ], [ 0, %3 ]
  %5 = lshr i32 %.04.i, 7
  %6 = add nuw nsw i64 %.0.i, 1
  %.not.i = icmp ult i32 %.04.i, 128
  %indvars.iv.next = add nuw nsw i64 %indvars.iv, 1
  br i1 %.not.i, label %oid_subidentifier_num_bytes.exit, label %4, !llvm.loop !54

oid_subidentifier_num_bytes.exit:                 ; preds = %4
  %7 = load ptr, ptr %0, align 8, !tbaa !19
  %8 = ptrtoint ptr %1 to i64
  %9 = ptrtoint ptr %7 to i64
  %10 = sub i64 %8, %9
  %.not21 = icmp ugt i64 %10, %.0.i
  br i1 %.not21, label %11, label %24

11:                                               ; preds = %oid_subidentifier_num_bytes.exit
  %12 = trunc i32 %2 to i8
  %13 = and i8 %12, 127
  %14 = getelementptr i8, ptr %7, i64 %6
  %15 = getelementptr i8, ptr %14, i64 -1
  store i8 %13, ptr %15, align 1, !tbaa !48
  %.not22 = icmp eq i64 %.0.i, 0
  br i1 %.not22, label %._crit_edge, label %.lr.ph

._crit_edge:                                      ; preds = %.lr.ph, %11
  %16 = load ptr, ptr %0, align 8, !tbaa !19
  %17 = getelementptr inbounds nuw i8, ptr %16, i64 %6
  store ptr %17, ptr %0, align 8, !tbaa !19
  br label %24

.lr.ph:                                           ; preds = %11, %.lr.ph
  %.024 = phi i64 [ %23, %.lr.ph ], [ 2, %11 ]
  %.019.in23 = phi i32 [ %.019, %.lr.ph ], [ %2, %11 ]
  %.019 = lshr i32 %.019.in23, 7
  %18 = trunc i32 %.019 to i8
  %19 = or i8 %18, -128
  %20 = load ptr, ptr %0, align 8, !tbaa !19
  %21 = sub nuw nsw i64 %6, %.024
  %22 = getelementptr inbounds nuw i8, ptr %20, i64 %21
  store i8 %19, ptr %22, align 1, !tbaa !48
  %23 = add nuw nsw i64 %.024, 1
  %exitcond = icmp eq i64 %23, %indvars.iv
  br i1 %exitcond, label %._crit_edge, label %.lr.ph, !llvm.loop !55

24:                                               ; preds = %oid_subidentifier_num_bytes.exit, %._crit_edge
  %.018 = phi i32 [ 0, %._crit_edge ], [ -11, %oid_subidentifier_num_bytes.exit ]
  ret i32 %.018
}